#include <math.h>
#include <stdio.h>
#include <stdlib.h>
#include <string.h>


void main()
{
	int n,i,j,l;
	char a[100],max[100],min[100];
	scanf("%d",&n);
	scanf("%s", a);
	int minl=strlen(a),maxl=strlen(a);
	l=strlen(a);
	for(i=0;i<l;i++)
	{
		max[i]=a[i];
		min[i]=a[i];
	}
	for(i=1;i<n;i++)
	{
		scanf("%s", a);
		l=strlen(a);
		if(l>maxl)
		{
			for(j=0;j<l;j++)
			{
				max[j]=a[j];
			}
			maxl=l;
		}
		if(l<minl)
		{
			for(j=0;j<l;j++)
			{
				min[j]=a[j];
			}
			minl=l;
		}
	}
	max[maxl] = '\0';
	for(i=0;i<maxl;i++)	printf("%c",max[i]);
	printf("\n");
	min[minl] = '\0';
	for(i=0;i<minl;i++)	printf("%c",min[i]);
}